; Function Attrs: mustprogress uwtable
define dso_local noundef ptr @_Z17find_related_factRKSt6vectorIPK4FactSaIS2_EES2_(ptr nocapture noundef nonnull readonly align 8 dereferenceable(24) %0, ptr noundef %1) local_unnamed_addr #8 {
  %3 = getelementptr inbounds i8, ptr %0, i64 8
  %4 = load ptr, ptr %3, align 8
  %5 = load ptr, ptr %0, align 8
  %.not = icmp eq ptr %4, %5
  br i1 %.not, label %.loopexit, label %.lr.ph

.lr.ph:                                           ; preds = %2, %17
  %6 = phi ptr [ %20, %17 ], [ %5, %2 ]
  %.010 = phi i64 [ %18, %17 ], [ 0, %2 ]
  %7 = getelementptr inbounds ptr, ptr %6, i64 %.010
  %8 = load ptr, ptr %7, align 8
  %9 = load ptr, ptr %1, align 8
  %10 = getelementptr inbounds i8, ptr %9, i64 88
  %11 = load ptr, ptr %10, align 8
  %12 = tail call noundef zeroext i1 %11(ptr noundef nonnull align 8 dereferenceable(12) %1, ptr noundef nonnull align 8 dereferenceable(12) %8)
  br i1 %12, label %13, label %17

13:                                               ; preds = %.lr.ph
  %14 = load ptr, ptr %0, align 8
  %15 = getelementptr inbounds ptr, ptr %14, i64 %.010
  %16 = load ptr, ptr %15, align 8
  br label %.loopexit

17:                                               ; preds = %.lr.ph
  %18 = add nuw i64 %.010, 1
  %19 = load ptr, ptr %3, align 8
  %20 = load ptr, ptr %0, align 8
  %21 = ptrtoint ptr %19 to i64
  %22 = ptrtoint ptr %20 to i64
  %23 = sub i64 %21, %22
  %24 = ashr exact i64 %23, 3
  %25 = icmp ult i64 %18, %24
  br i1 %25, label %.lr.ph, label %.loopexit, !llvm.loop !11

.loopexit:                                        ; preds = %17, %2, %13
  %.08 = phi ptr [ %16, %13 ], [ null, %2 ], [ null, %17 ]
  ret ptr %.08
}